; Function Attrs: mustprogress nofree norecurse nosync nounwind willreturn memory(argmem: read) uwtable
define noundef i64 @_ZNK5faiss11IndexIVFPQR25train_encoder_num_vectorsEv(ptr noundef nonnull readonly align 8 captures(none) dereferenceable(788) %0) unnamed_addr #4 align 2 {
  %2 = getelementptr inbounds nuw i8, ptr %0, i64 356
  %3 = load i32, ptr %2, align 4, !tbaa !78
  %4 = sext i32 %3 to i64
  %5 = getelementptr inbounds nuw i8, ptr %0, i64 320
  %6 = load i64, ptr %5, align 8, !tbaa !79
  %7 = mul i64 %6, %4
  %8 = getelementptr inbounds nuw i8, ptr %0, i64 628
  %9 = load i32, ptr %8, align 4, !tbaa !80
  %10 = sext i32 %9 to i64
  %11 = getelementptr inbounds nuw i8, ptr %0, i64 592
  %12 = load i64, ptr %11, align 8, !tbaa !72
  %13 = mul i64 %12, %10
  %.sroa.speculated = tail call i64 @llvm.umax.i64(i64 %7, i64 %13)
  ret i64 %.sroa.speculated
}